; Function Attrs: mustprogress uwtable
define hidden void @_ZN2cv11xfeatures2d9TBMR_Impl6detectERKNS_11_InputArrayERSt6vectorINS_8KeyPointESaIS6_EES4_(ptr noundef nonnull align 8 dereferenceable(408) %0, ptr noundef nonnull align 8 dereferenceable(24) %1, ptr noundef nonnull align 8 dereferenceable(24) %2, ptr noundef nonnull align 8 dereferenceable(24) %3) unnamed_addr #0 align 2 personality ptr @__gxx_personality_v0 {
  %5 = alloca %"class.std::vector", align 8
  call void @llvm.lifetime.start.p0(i64 24, ptr nonnull %5) #24
  call void @llvm.memset.p0.i64(ptr noundef nonnull align 8 dereferenceable(24) %5, i8 0, i64 24, i1 false)
  invoke void @_ZN2cv11xfeatures2d9TBMR_Impl6detectERKNS_11_InputArrayERSt6vectorINS0_17Elliptic_KeyPointESaIS6_EES4_(ptr noundef nonnull align 8 dereferenceable(408) %0, ptr noundef nonnull align 8 dereferenceable(24) %1, ptr noundef nonnull align 8 dereferenceable(24) %5, ptr noundef nonnull align 8 dereferenceable(24) %3)
          to label %6 unwind label %36

6:                                                ; preds = %4
  %7 = getelementptr inbounds nuw i8, ptr %5, i64 8
  %8 = load ptr, ptr %7, align 8, !tbaa !3
  %9 = load ptr, ptr %5, align 8, !tbaa !9
  %10 = ptrtoint ptr %8 to i64
  %11 = ptrtoint ptr %9 to i64
  %12 = sub i64 %10, %11
  %13 = sdiv exact i64 %12, 72
  %14 = getelementptr inbounds nuw i8, ptr %2, i64 8
  %15 = load ptr, ptr %14, align 8, !tbaa !10
  %16 = load ptr, ptr %2, align 8, !tbaa !13
  %17 = ptrtoint ptr %15 to i64
  %18 = ptrtoint ptr %16 to i64
  %19 = sub i64 %17, %18
  %20 = sdiv exact i64 %19, 28
  %21 = icmp ugt i64 %13, %20
  br i1 %21, label %22, label %24

22:                                               ; preds = %6
  %23 = sub nuw nsw i64 %13, %20
  invoke void @_ZNSt6vectorIN2cv8KeyPointESaIS1_EE17_M_default_appendEm(ptr noundef nonnull align 8 dereferenceable(24) %2, i64 noundef %23)
          to label %._ZNSt6vectorIN2cv8KeyPointESaIS1_EE6resizeEm.exit_crit_edge unwind label %36

._ZNSt6vectorIN2cv8KeyPointESaIS1_EE6resizeEm.exit_crit_edge: ; preds = %22
  %.pre = load ptr, ptr %7, align 8, !tbaa !3
  %.pre13 = load ptr, ptr %5, align 8, !tbaa !9
  %.pre14 = ptrtoint ptr %.pre to i64
  %.pre15 = ptrtoint ptr %.pre13 to i64
  %.pre17 = sub i64 %.pre14, %.pre15
  %.pre19 = sdiv exact i64 %.pre17, 72
  br label %_ZNSt6vectorIN2cv8KeyPointESaIS1_EE6resizeEm.exit

24:                                               ; preds = %6
  %25 = icmp ult i64 %13, %20
  br i1 %25, label %26, label %_ZNSt6vectorIN2cv8KeyPointESaIS1_EE6resizeEm.exit

26:                                               ; preds = %24
  %27 = getelementptr inbounds nuw %"class.cv::KeyPoint", ptr %16, i64 %13
  %.not.i.i = icmp eq ptr %15, %27
  br i1 %.not.i.i, label %_ZNSt6vectorIN2cv8KeyPointESaIS1_EE6resizeEm.exit, label %28

28:                                               ; preds = %26
  store ptr %27, ptr %14, align 8, !tbaa !10
  br label %_ZNSt6vectorIN2cv8KeyPointESaIS1_EE6resizeEm.exit

_ZNSt6vectorIN2cv8KeyPointESaIS1_EE6resizeEm.exit: ; preds = %._ZNSt6vectorIN2cv8KeyPointESaIS1_EE6resizeEm.exit_crit_edge, %24, %26, %28
  %.pre-phi20 = phi i64 [ %.pre19, %._ZNSt6vectorIN2cv8KeyPointESaIS1_EE6resizeEm.exit_crit_edge ], [ %13, %24 ], [ %13, %26 ], [ %13, %28 ]
  %29 = phi ptr [ %.pre13, %._ZNSt6vectorIN2cv8KeyPointESaIS1_EE6resizeEm.exit_crit_edge ], [ %9, %24 ], [ %9, %26 ], [ %9, %28 ]
  %30 = phi ptr [ %.pre, %._ZNSt6vectorIN2cv8KeyPointESaIS1_EE6resizeEm.exit_crit_edge ], [ %8, %24 ], [ %8, %26 ], [ %8, %28 ]
  %.not = icmp eq ptr %30, %29
  br i1 %.not, label %_ZSt8_DestroyIPN2cv11xfeatures2d17Elliptic_KeyPointES2_EvT_S4_RSaIT0_E.exit.i, label %.lr.ph.preheader

.lr.ph.preheader:                                 ; preds = %_ZNSt6vectorIN2cv8KeyPointESaIS1_EE6resizeEm.exit
  %umax = call i64 @llvm.umax.i64(i64 %.pre-phi20, i64 1)
  br label %.lr.ph

.lr.ph.i.i.i.i:                                   ; preds = %.lr.ph, %.lr.ph.i.i.i.i
  %.05.i.i.i.i = phi ptr [ %33, %.lr.ph.i.i.i.i ], [ %29, %.lr.ph ]
  %31 = load ptr, ptr %.05.i.i.i.i, align 8, !tbaa !14
  %32 = load ptr, ptr %31, align 8
  call void %32(ptr noundef nonnull align 8 dereferenceable(72) %.05.i.i.i.i) #24
  %33 = getelementptr inbounds nuw i8, ptr %.05.i.i.i.i, i64 72
  %.not.i.i.i.i = icmp eq ptr %33, %30
  br i1 %.not.i.i.i.i, label %_ZSt8_DestroyIPN2cv11xfeatures2d17Elliptic_KeyPointES2_EvT_S4_RSaIT0_E.exitthread-pre-split.i, label %.lr.ph.i.i.i.i, !llvm.loop !16

_ZSt8_DestroyIPN2cv11xfeatures2d17Elliptic_KeyPointES2_EvT_S4_RSaIT0_E.exitthread-pre-split.i: ; preds = %.lr.ph.i.i.i.i
  %.pr.i = load ptr, ptr %5, align 8, !tbaa !9
  br label %_ZSt8_DestroyIPN2cv11xfeatures2d17Elliptic_KeyPointES2_EvT_S4_RSaIT0_E.exit.i

_ZSt8_DestroyIPN2cv11xfeatures2d17Elliptic_KeyPointES2_EvT_S4_RSaIT0_E.exit.i: ; preds = %_ZNSt6vectorIN2cv8KeyPointESaIS1_EE6resizeEm.exit, %_ZSt8_DestroyIPN2cv11xfeatures2d17Elliptic_KeyPointES2_EvT_S4_RSaIT0_E.exitthread-pre-split.i
  %34 = phi ptr [ %.pr.i, %_ZSt8_DestroyIPN2cv11xfeatures2d17Elliptic_KeyPointES2_EvT_S4_RSaIT0_E.exitthread-pre-split.i ], [ %29, %_ZNSt6vectorIN2cv8KeyPointESaIS1_EE6resizeEm.exit ]
  %.not.i.i.i = icmp eq ptr %34, null
  br i1 %.not.i.i.i, label %_ZNSt6vectorIN2cv11xfeatures2d17Elliptic_KeyPointESaIS2_EED2Ev.exit, label %35

35:                                               ; preds = %_ZSt8_DestroyIPN2cv11xfeatures2d17Elliptic_KeyPointES2_EvT_S4_RSaIT0_E.exit.i
  call void @_ZdlPv(ptr noundef nonnull %34) #25
  br label %_ZNSt6vectorIN2cv11xfeatures2d17Elliptic_KeyPointESaIS2_EED2Ev.exit

_ZNSt6vectorIN2cv11xfeatures2d17Elliptic_KeyPointESaIS2_EED2Ev.exit: ; preds = %_ZSt8_DestroyIPN2cv11xfeatures2d17Elliptic_KeyPointES2_EvT_S4_RSaIT0_E.exit.i, %35
  call void @llvm.lifetime.end.p0(i64 24, ptr nonnull %5) #24
  ret void

36:                                               ; preds = %22, %4
  %37 = landingpad { ptr, i32 }
          cleanup
  call void @_ZNSt6vectorIN2cv11xfeatures2d17Elliptic_KeyPointESaIS2_EED2Ev(ptr noundef nonnull align 8 dereferenceable(24) %5) #24
  call void @llvm.lifetime.end.p0(i64 24, ptr nonnull %5) #24
  resume { ptr, i32 } %37

.lr.ph:                                           ; preds = %.lr.ph.preheader, %.lr.ph
  %.011 = phi i64 [ %41, %.lr.ph ], [ 0, %.lr.ph.preheader ]
  %38 = getelementptr inbounds nuw %"class.cv::xfeatures2d::Elliptic_KeyPoint", ptr %29, i64 %.011, i32 1
  %39 = load ptr, ptr %2, align 8, !tbaa !13
  %40 = getelementptr inbounds nuw %"class.cv::KeyPoint", ptr %39, i64 %.011
  call void @llvm.memcpy.p0.p0.i64(ptr noundef nonnull align 4 dereferenceable(28) %40, ptr noundef nonnull align 8 dereferenceable(28) %38, i64 28, i1 false), !tbaa.struct !18
  %41 = add nuw i64 %.011, 1
  %exitcond.not = icmp eq i64 %41, %umax
  br i1 %exitcond.not, label %.lr.ph.i.i.i.i, label %.lr.ph, !llvm.loop !23
}